target datalayout = "e-m:e-p270:32:32-p271:32:32-p272:64:64-i64:64-i128:128-f80:128-n8:16:32:64-S128"
target triple = "x86_64-pc-linux-gnu"

@.str.6 = private unnamed_addr constant [12 x i8] c"pgstat_io.c\00", align 1
@.str.7 = private unnamed_addr constant [9 x i8] c"relation\00", align 1
@.str.8 = private unnamed_addr constant [14 x i8] c"temp relation\00", align 1
@.str.9 = private unnamed_addr constant [4 x i8] c"wal\00", align 1
@.str.10 = private unnamed_addr constant [32 x i8] c"unrecognized IOObject value: %d\00", align 1
@__func__.pgstat_get_io_object_name = private unnamed_addr constant [26 x i8] c"pgstat_get_io_object_name\00", align 1

; Function Attrs: nounwind uwtable
define dso_local ptr @pgstat_get_io_object_name(i32 noundef %0) #0 {
  %2 = alloca ptr, align 8
  %3 = alloca i32, align 4
  store i32 %0, ptr %3, align 4
  %4 = load i32, ptr %3, align 4
  switch i32 %4, label %8 [
    i32 0, label %5
    i32 1, label %6
    i32 2, label %7
  ]

5:                                                ; preds = %1
  store ptr @.str.7, ptr %2, align 8
  br label %19

6:                                                ; preds = %1
  store ptr @.str.8, ptr %2, align 8
  br label %19

7:                                                ; preds = %1
  store ptr @.str.9, ptr %2, align 8
  br label %19

8:                                                ; preds = %1
  br label %9

9:                                                ; preds = %8
  br i1 true, label %10, label %12

10:                                               ; preds = %9
  %11 = call zeroext i1 @errstart_cold(i32 noundef 21, ptr noundef null) #9
  br i1 %11, label %14, label %17

12:                                               ; preds = %9
  %13 = call zeroext i1 @errstart(i32 noundef 21, ptr noundef null)
  br i1 %13, label %14, label %17

14:                                               ; preds = %12, %10
  %15 = load i32, ptr %3, align 4
  %16 = call i32 (ptr, ...) @errmsg_internal(ptr noundef @.str.10, i32 noundef %15)
  call void @errfinish(ptr noundef @.str.6, i32 noundef 280, ptr noundef @__func__.pgstat_get_io_object_name)
  br label %17

17:                                               ; preds = %14, %12, %10
  unreachable

18:                                               ; No predecessors!
  unreachable

19:                                               ; preds = %7, %6, %5
  %20 = load ptr, ptr %2, align 8
  ret ptr %20
}